target datalayout = "e-m:e-p270:32:32-p271:32:32-p272:64:64-i64:64-i128:128-f80:128-n8:16:32:64-S128"
target triple = "x86_64-pc-linux-gnu"

%struct.Odc_Man_t_ = type { i32, i32, i32, i32, i32, i32, ptr, ptr, ptr, ptr, i32, i32, i32, ptr, i16, i16, ptr, i32, ptr, i32, i32, ptr, ptr, ptr, i32, i32, i32, i32, i32, i32, i64, i64, i64, i64, i64, i64, i64, i64 }
%struct.Vec_Int_t_ = type { i32, i32, ptr }
%struct.timespec = type { i64, i64 }

; Function Attrs: inlinehint nounwind uwtable
define internal void @Vec_IntClear(ptr noundef %0) #5 {
  %2 = alloca ptr, align 8
  store ptr %0, ptr %2, align 8, !tbaa !52
  %3 = load ptr, ptr %2, align 8, !tbaa !52
  %4 = getelementptr inbounds nuw %struct.Vec_Int_t_, ptr %3, i32 0, i32 1
  store i32 0, ptr %4, align 4, !tbaa !53
  ret void
}

; Function Attrs: inlinehint nounwind uwtable
define internal i32 @Vec_IntEntry(ptr noundef %0, i32 noundef %1) #5 {
  %3 = alloca ptr, align 8
  %4 = alloca i32, align 4
  store ptr %0, ptr %3, align 8, !tbaa !52
  store i32 %1, ptr %4, align 4, !tbaa !3
  %5 = load ptr, ptr %3, align 8, !tbaa !52
  %6 = getelementptr inbounds nuw %struct.Vec_Int_t_, ptr %5, i32 0, i32 2
  %7 = load ptr, ptr %6, align 8, !tbaa !56
  %8 = load i32, ptr %4, align 4, !tbaa !3
  %9 = sext i32 %8 to i64
  %10 = getelementptr inbounds i32, ptr %7, i64 %9
  %11 = load i32, ptr %10, align 4, !tbaa !3
  ret i32 %11
}

; Function Attrs: inlinehint nounwind uwtable
define internal i32 @Vec_IntSize(ptr noundef %0) #5 {
  %2 = alloca ptr, align 8
  store ptr %0, ptr %2, align 8, !tbaa !52
  %3 = load ptr, ptr %2, align 8, !tbaa !52
  %4 = getelementptr inbounds nuw %struct.Vec_Int_t_, ptr %3, i32 0, i32 1
  %5 = load i32, ptr %4, align 4, !tbaa !53
  ret i32 %5
}

; Function Attrs: inlinehint nounwind uwtable
define internal i64 @Abc_Clock() #5 {
  %1 = alloca i64, align 8
  %2 = alloca %struct.timespec, align 8
  %3 = alloca i32, align 4
  %4 = alloca i64, align 8
  call void @llvm.lifetime.start.p0(i64 16, ptr %2) #10
  %5 = call i32 @clock_gettime(i32 noundef 1, ptr noundef %2) #10
  %6 = icmp slt i32 %5, 0
  br i1 %6, label %7, label %8

7:                                                ; preds = %0
  store i64 -1, ptr %1, align 8
  store i32 1, ptr %3, align 4
  br label %19

8:                                                ; preds = %0
  call void @llvm.lifetime.start.p0(i64 8, ptr %4) #10
  %9 = getelementptr inbounds nuw %struct.timespec, ptr %2, i32 0, i32 0
  %10 = load i64, ptr %9, align 8, !tbaa !141
  %11 = mul nsw i64 %10, 1000000
  store i64 %11, ptr %4, align 8, !tbaa !61
  %12 = getelementptr inbounds nuw %struct.timespec, ptr %2, i32 0, i32 1
  %13 = load i64, ptr %12, align 8, !tbaa !143
  %14 = mul nsw i64 %13, 1000000
  %15 = sdiv i64 %14, 1000000000
  %16 = load i64, ptr %4, align 8, !tbaa !61
  %17 = add nsw i64 %16, %15
  store i64 %17, ptr %4, align 8, !tbaa !61
  %18 = load i64, ptr %4, align 8, !tbaa !61
  store i64 %18, ptr %1, align 8
  store i32 1, ptr %3, align 4
  call void @llvm.lifetime.end.p0(i64 8, ptr %4) #10
  br label %19

19:                                               ; preds = %8, %7
  call void @llvm.lifetime.end.p0(i64 16, ptr %2) #10
  %20 = load i64, ptr %1, align 8
  ret i64 %20
}

; Function Attrs: nounwind uwtable
define void @Abc_NtkDontCareClear(ptr noundef %0) #0 {
  %2 = alloca ptr, align 8
  %3 = alloca i64, align 8
  %4 = alloca i32, align 4
  %5 = alloca i32, align 4
  store ptr %0, ptr %2, align 8, !tbaa !7
  call void @llvm.lifetime.start.p0(i64 8, ptr %3) #10
  %6 = call i64 @Abc_Clock()
  store i64 %6, ptr %3, align 8, !tbaa !61
  %7 = load ptr, ptr %2, align 8, !tbaa !7
  %8 = getelementptr inbounds nuw %struct.Odc_Man_t_, ptr %7, i32 0, i32 18
  %9 = load ptr, ptr %8, align 8, !tbaa !37
  %10 = call i32 @Vec_IntSize(ptr noundef %9)
  %11 = load ptr, ptr %2, align 8, !tbaa !7
  %12 = getelementptr inbounds nuw %struct.Odc_Man_t_, ptr %11, i32 0, i32 17
  %13 = load i32, ptr %12, align 8, !tbaa !35
  %14 = sdiv i32 %13, 3
  %15 = icmp sgt i32 %10, %14
  br i1 %15, label %16, label %25

16:                                               ; preds = %1
  %17 = load ptr, ptr %2, align 8, !tbaa !7
  %18 = getelementptr inbounds nuw %struct.Odc_Man_t_, ptr %17, i32 0, i32 16
  %19 = load ptr, ptr %18, align 8, !tbaa !36
  %20 = load ptr, ptr %2, align 8, !tbaa !7
  %21 = getelementptr inbounds nuw %struct.Odc_Man_t_, ptr %20, i32 0, i32 17
  %22 = load i32, ptr %21, align 8, !tbaa !35
  %23 = sext i32 %22 to i64
  %24 = mul i64 2, %23
  call void @llvm.memset.p0.i64(ptr align 2 %19, i8 0, i64 %24, i1 false)
  br label %52

25:                                               ; preds = %1
  call void @llvm.lifetime.start.p0(i64 4, ptr %4) #10
  call void @llvm.lifetime.start.p0(i64 4, ptr %5) #10
  store i32 0, ptr %5, align 4, !tbaa !3
  br label %26

26:                                               ; preds = %48, %25
  %27 = load i32, ptr %5, align 4, !tbaa !3
  %28 = load ptr, ptr %2, align 8, !tbaa !7
  %29 = getelementptr inbounds nuw %struct.Odc_Man_t_, ptr %28, i32 0, i32 18
  %30 = load ptr, ptr %29, align 8, !tbaa !37
  %31 = call i32 @Vec_IntSize(ptr noundef %30)
  %32 = icmp slt i32 %27, %31
  br i1 %32, label %33, label %39

33:                                               ; preds = %26
  %34 = load ptr, ptr %2, align 8, !tbaa !7
  %35 = getelementptr inbounds nuw %struct.Odc_Man_t_, ptr %34, i32 0, i32 18
  %36 = load ptr, ptr %35, align 8, !tbaa !37
  %37 = load i32, ptr %5, align 4, !tbaa !3
  %38 = call i32 @Vec_IntEntry(ptr noundef %36, i32 noundef %37)
  store i32 %38, ptr %4, align 4, !tbaa !3
  br label %39

39:                                               ; preds = %33, %26
  %40 = phi i1 [ false, %26 ], [ true, %33 ]
  br i1 %40, label %41, label %51

41:                                               ; preds = %39
  %42 = load ptr, ptr %2, align 8, !tbaa !7
  %43 = getelementptr inbounds nuw %struct.Odc_Man_t_, ptr %42, i32 0, i32 16
  %44 = load ptr, ptr %43, align 8, !tbaa !36
  %45 = load i32, ptr %4, align 4, !tbaa !3
  %46 = sext i32 %45 to i64
  %47 = getelementptr inbounds i16, ptr %44, i64 %46
  store i16 0, ptr %47, align 2, !tbaa !59
  br label %48

48:                                               ; preds = %41
  %49 = load i32, ptr %5, align 4, !tbaa !3
  %50 = add nsw i32 %49, 1
  store i32 %50, ptr %5, align 4, !tbaa !3
  br label %26, !llvm.loop !62

51:                                               ; preds = %39
  call void @llvm.lifetime.end.p0(i64 4, ptr %5) #10
  call void @llvm.lifetime.end.p0(i64 4, ptr %4) #10
  br label %52

52:                                               ; preds = %51, %16
  %53 = load ptr, ptr %2, align 8, !tbaa !7
  %54 = getelementptr inbounds nuw %struct.Odc_Man_t_, ptr %53, i32 0, i32 18
  %55 = load ptr, ptr %54, align 8, !tbaa !37
  call void @Vec_IntClear(ptr noundef %55)
  %56 = load ptr, ptr %2, align 8, !tbaa !7
  %57 = getelementptr inbounds nuw %struct.Odc_Man_t_, ptr %56, i32 0, i32 10
  %58 = load i32, ptr %57, align 8, !tbaa !29
  %59 = add nsw i32 1, %58
  %60 = load ptr, ptr %2, align 8, !tbaa !7
  %61 = getelementptr inbounds nuw %struct.Odc_Man_t_, ptr %60, i32 0, i32 11
  store i32 %59, ptr %61, align 4, !tbaa !30
  %62 = load ptr, ptr %2, align 8, !tbaa !7
  %63 = getelementptr inbounds nuw %struct.Odc_Man_t_, ptr %62, i32 0, i32 14
  store i16 -1, ptr %63, align 8, !tbaa !46
  %64 = call i64 @Abc_Clock()
  %65 = load i64, ptr %3, align 8, !tbaa !61
  %66 = sub nsw i64 %64, %65
  %67 = load ptr, ptr %2, align 8, !tbaa !7
  %68 = getelementptr inbounds nuw %struct.Odc_Man_t_, ptr %67, i32 0, i32 30
  %69 = load i64, ptr %68, align 8, !tbaa !63
  %70 = add nsw i64 %69, %66
  store i64 %70, ptr %68, align 8, !tbaa !63
  call void @llvm.lifetime.end.p0(i64 8, ptr %3) #10
  ret void
}