; Function Attrs: nounwind uwtable
define void @Abc_NtkDontCareClear(ptr noundef captures(none) %0) local_unnamed_addr #0 {
  %2 = alloca %struct.timespec, align 8
  %3 = alloca %struct.timespec, align 8
  call void @llvm.lifetime.start.p0(i64 16, ptr nonnull %3) #19
  %4 = call i32 @clock_gettime(i32 noundef 1, ptr noundef nonnull %3) #19
  %5 = icmp slt i32 %4, 0
  br i1 %5, label %Abc_Clock.exit, label %6

6:                                                ; preds = %1
  %7 = load i64, ptr %3, align 8, !tbaa !54
  %.neg20 = mul i64 %7, -1000000
  %8 = getelementptr inbounds nuw i8, ptr %3, i64 8
  %9 = load i64, ptr %8, align 8, !tbaa !56
  %.neg = sdiv i64 %9, -1000
  %.neg21 = add i64 %.neg, %.neg20
  br label %Abc_Clock.exit

Abc_Clock.exit:                                   ; preds = %1, %6
  %.0.i.neg = phi i64 [ %.neg21, %6 ], [ 1, %1 ]
  call void @llvm.lifetime.end.p0(i64 16, ptr nonnull %3) #19
  %10 = getelementptr inbounds nuw i8, ptr %0, i64 104
  %11 = load ptr, ptr %10, align 8, !tbaa !41
  %12 = getelementptr i8, ptr %11, i64 4
  %.val = load i32, ptr %12, align 4, !tbaa !37
  %13 = getelementptr inbounds nuw i8, ptr %0, i64 96
  %14 = load i32, ptr %13, align 8, !tbaa !35
  %15 = sdiv i32 %14, 3
  %16 = icmp sgt i32 %.val, %15
  br i1 %16, label %21, label %.preheader

.preheader:                                       ; preds = %Abc_Clock.exit
  %17 = icmp sgt i32 %.val, 0
  br i1 %17, label %.lr.ph, label %.critedge

.lr.ph:                                           ; preds = %.preheader
  %18 = getelementptr i8, ptr %11, i64 8
  %.val17 = load ptr, ptr %18, align 8, !tbaa !40
  %19 = getelementptr inbounds nuw i8, ptr %0, i64 88
  %20 = load ptr, ptr %19, align 8, !tbaa !36
  %wide.trip.count = zext nneg i32 %.val to i64
  br label %26

21:                                               ; preds = %Abc_Clock.exit
  %22 = getelementptr inbounds nuw i8, ptr %0, i64 88
  %23 = load ptr, ptr %22, align 8, !tbaa !36
  %24 = sext i32 %14 to i64
  %25 = shl nsw i64 %24, 1
  call void @llvm.memset.p0.i64(ptr align 2 %23, i8 0, i64 %25, i1 false)
  %.pre = load ptr, ptr %10, align 8, !tbaa !41
  br label %.critedge

26:                                               ; preds = %.lr.ph, %26
  %indvars.iv = phi i64 [ 0, %.lr.ph ], [ %indvars.iv.next, %26 ]
  %27 = getelementptr inbounds nuw i32, ptr %.val17, i64 %indvars.iv
  %28 = load i32, ptr %27, align 4, !tbaa !48
  %29 = sext i32 %28 to i64
  %30 = getelementptr inbounds i16, ptr %20, i64 %29
  store i16 0, ptr %30, align 2, !tbaa !57
  %indvars.iv.next = add nuw nsw i64 %indvars.iv, 1
  %exitcond.not = icmp eq i64 %indvars.iv.next, %wide.trip.count
  br i1 %exitcond.not, label %.critedge, label %26, !llvm.loop !58

.critedge:                                        ; preds = %26, %.preheader, %21
  %31 = phi ptr [ %11, %.preheader ], [ %.pre, %21 ], [ %11, %26 ]
  %32 = getelementptr inbounds nuw i8, ptr %31, i64 4
  store i32 0, ptr %32, align 4, !tbaa !37
  %33 = getelementptr inbounds nuw i8, ptr %0, i64 56
  %34 = load i32, ptr %33, align 8, !tbaa !29
  %35 = add nsw i32 %34, 1
  %36 = getelementptr inbounds nuw i8, ptr %0, i64 60
  store i32 %35, ptr %36, align 4, !tbaa !30
  %37 = getelementptr inbounds nuw i8, ptr %0, i64 80
  store i16 -1, ptr %37, align 8, !tbaa !53
  call void @llvm.lifetime.start.p0(i64 16, ptr nonnull %2) #19
  %38 = call i32 @clock_gettime(i32 noundef 1, ptr noundef nonnull %2) #19
  %39 = icmp slt i32 %38, 0
  br i1 %39, label %Abc_Clock.exit19, label %40

40:                                               ; preds = %.critedge
  %41 = load i64, ptr %2, align 8, !tbaa !54
  %42 = mul nsw i64 %41, 1000000
  %43 = getelementptr inbounds nuw i8, ptr %2, i64 8
  %44 = load i64, ptr %43, align 8, !tbaa !56
  %45 = sdiv i64 %44, 1000
  %46 = add nsw i64 %45, %42
  br label %Abc_Clock.exit19

Abc_Clock.exit19:                                 ; preds = %.critedge, %40
  %.0.i18 = phi i64 [ %46, %40 ], [ -1, %.critedge ]
  call void @llvm.lifetime.end.p0(i64 16, ptr nonnull %2) #19
  %47 = add i64 %.0.i18, %.0.i.neg
  %48 = getelementptr inbounds nuw i8, ptr %0, i64 168
  %49 = load i64, ptr %48, align 8, !tbaa !59
  %50 = add nsw i64 %47, %49
  store i64 %50, ptr %48, align 8, !tbaa !59
  ret void
}